target datalayout = "e-m:e-p270:32:32-p271:32:32-p272:64:64-i64:64-i128:128-f80:128-n8:16:32:64-S128"
target triple = "x86_64-unknown-linux-gnu"

%"class.testing::AssertionResult" = type { i8, %"class.std::unique_ptr" }
%"class.std::unique_ptr" = type { %"struct.std::__uniq_ptr_data" }
%"struct.std::__uniq_ptr_data" = type { %"class.std::__uniq_ptr_impl" }
%"class.std::__uniq_ptr_impl" = type { %"class.std::tuple.36" }
%"class.std::tuple.36" = type { %"struct.std::_Tuple_impl.37" }
%"struct.std::_Tuple_impl.37" = type { %"struct.std::_Head_base.40" }
%"struct.std::_Head_base.40" = type { ptr }
%"struct.testing::(anonymous namespace)::NonNegative" = type { i32 }
%class.anon.420 = type { i8 }
%class.anon.453 = type { %class.anon.420 }

; Function Attrs: mustprogress uwtable
define internal void @"_ZZN7testing12_GLOBAL__N_140ExceptionCheckTest_ModifyingChecker_Test8TestBodyEvENK3$_2clEPNS0_22FollowsStrongGuaranteeE"(ptr noalias sret(%"class.testing::AssertionResult") align 8 %agg.result, ptr noundef nonnull align 1 dereferenceable(1) %this, ptr noundef %g) #4 align 2 {
entry:
  %result.ptr = alloca ptr, align 8
  %this.addr = alloca ptr, align 8
  %g.addr = alloca ptr, align 8
  store ptr %agg.result, ptr %result.ptr, align 8
  store ptr %this, ptr %this.addr, align 8
  store ptr %g, ptr %g.addr, align 8
  %0 = load ptr, ptr %g.addr, align 8
  %i = getelementptr inbounds %"struct.testing::(anonymous namespace)::NonNegative", ptr %0, i32 0, i32 0
  %1 = load i32, ptr %i, align 4
  %inc = add nsw i32 %1, 1
  store i32 %inc, ptr %i, align 4
  call void @_ZN7testing16AssertionSuccessEv(ptr sret(%"class.testing::AssertionResult") align 8 %agg.result)
  ret void
}

; Function Attrs: mustprogress uwtable
define internal void @"_ZZN7testing19exceptions_internal19ExceptionSafetyTestINS_12_GLOBAL__N_122FollowsStrongGuaranteeEE12WrapContractIZNS2_40ExceptionCheckTest_ModifyingChecker_Test8TestBodyEvE3$_2EESt8functionIFNS_15AssertionResultEPS3_EERKT_ENKUlSA_E_clESA_"(ptr noalias sret(%"class.testing::AssertionResult") align 8 %agg.result, ptr noundef nonnull align 1 dereferenceable(1) %this, ptr noundef %t_ptr) #4 align 2 {
entry:
  %result.ptr = alloca ptr, align 8
  %this.addr = alloca ptr, align 8
  %t_ptr.addr = alloca ptr, align 8
  store ptr %agg.result, ptr %result.ptr, align 8
  store ptr %this, ptr %this.addr, align 8
  store ptr %t_ptr, ptr %t_ptr.addr, align 8
  %this1 = load ptr, ptr %this.addr, align 8
  %0 = getelementptr inbounds %class.anon.453, ptr %this1, i32 0, i32 0
  %1 = load ptr, ptr %t_ptr.addr, align 8
  call void @"_ZZN7testing12_GLOBAL__N_140ExceptionCheckTest_ModifyingChecker_Test8TestBodyEvENK3$_2clEPNS0_22FollowsStrongGuaranteeE"(ptr sret(%"class.testing::AssertionResult") align 8 %agg.result, ptr noundef nonnull align 1 dereferenceable(1) %0, ptr noundef %1)
  ret void
}

; Function Attrs: mustprogress nounwind uwtable
define linkonce_odr dso_local noundef ptr @_ZNKSt9_Any_data9_M_accessEv(ptr noundef nonnull align 8 dereferenceable(16) %this) #7 comdat align 2 {
entry:
  %this.addr = alloca ptr, align 8
  store ptr %this, ptr %this.addr, align 8
  %this1 = load ptr, ptr %this.addr, align 8
  %arrayidx = getelementptr inbounds [16 x i8], ptr %this1, i64 0, i64 0
  ret ptr %arrayidx
}

; Function Attrs: mustprogress uwtable
define internal void @"_ZSt13__invoke_implIN7testing15AssertionResultERZNS0_19exceptions_internal19ExceptionSafetyTestINS0_12_GLOBAL__N_122FollowsStrongGuaranteeEE12WrapContractIZNS4_40ExceptionCheckTest_ModifyingChecker_Test8TestBodyEvE3$_2EESt8functionIFS1_PS5_EERKT_EUlSB_E_JSB_EESE_St14__invoke_otherOT0_DpOT1_"(ptr noalias sret(%"class.testing::AssertionResult") align 8 %agg.result, ptr noundef nonnull align 1 dereferenceable(1) %__f, ptr noundef nonnull align 8 dereferenceable(8) %__args) #4 {
entry:
  %result.ptr = alloca ptr, align 8
  %__f.addr = alloca ptr, align 8
  %__args.addr = alloca ptr, align 8
  store ptr %agg.result, ptr %result.ptr, align 8
  store ptr %__f, ptr %__f.addr, align 8
  store ptr %__args, ptr %__args.addr, align 8
  %0 = load ptr, ptr %__f.addr, align 8
  %1 = load ptr, ptr %__args.addr, align 8
  %2 = load ptr, ptr %1, align 8
  call void @"_ZZN7testing19exceptions_internal19ExceptionSafetyTestINS_12_GLOBAL__N_122FollowsStrongGuaranteeEE12WrapContractIZNS2_40ExceptionCheckTest_ModifyingChecker_Test8TestBodyEvE3$_2EESt8functionIFNS_15AssertionResultEPS3_EERKT_ENKUlSA_E_clESA_"(ptr sret(%"class.testing::AssertionResult") align 8 %agg.result, ptr noundef nonnull align 1 dereferenceable(1) %0, ptr noundef %2)
  ret void
}

; Function Attrs: mustprogress nounwind uwtable
define internal noundef nonnull align 1 dereferenceable(1) ptr @"_ZNKSt9_Any_data9_M_accessIZN7testing19exceptions_internal19ExceptionSafetyTestINS1_12_GLOBAL__N_122FollowsStrongGuaranteeEE12WrapContractIZNS4_40ExceptionCheckTest_ModifyingChecker_Test8TestBodyEvE3$_2EESt8functionIFNS1_15AssertionResultEPS5_EERKT_EUlSC_E_EESH_v"(ptr noundef nonnull align 8 dereferenceable(16) %this) #7 align 2 {
entry:
  %this.addr = alloca ptr, align 8
  store ptr %this, ptr %this.addr, align 8
  %this1 = load ptr, ptr %this.addr, align 8
  %call = call noundef ptr @_ZNKSt9_Any_data9_M_accessEv(ptr noundef nonnull align 8 dereferenceable(16) %this1) #3
  ret ptr %call
}

; Function Attrs: mustprogress uwtable
define internal void @"_ZSt10__invoke_rIN7testing15AssertionResultERZNS0_19exceptions_internal19ExceptionSafetyTestINS0_12_GLOBAL__N_122FollowsStrongGuaranteeEE12WrapContractIZNS4_40ExceptionCheckTest_ModifyingChecker_Test8TestBodyEvE3$_2EESt8functionIFS1_PS5_EERKT_EUlSB_E_JSB_EENSt9enable_ifIX16is_invocable_r_vISE_T0_DpT1_EESE_E4typeEOSK_DpOSL_"(ptr noalias sret(%"class.testing::AssertionResult") align 8 %agg.result, ptr noundef nonnull align 1 dereferenceable(1) %__fn, ptr noundef nonnull align 8 dereferenceable(8) %__args) #4 {
entry:
  %result.ptr = alloca ptr, align 8
  %__fn.addr = alloca ptr, align 8
  %__args.addr = alloca ptr, align 8
  store ptr %agg.result, ptr %result.ptr, align 8
  store ptr %__fn, ptr %__fn.addr, align 8
  store ptr %__args, ptr %__args.addr, align 8
  %0 = load ptr, ptr %__fn.addr, align 8
  %1 = load ptr, ptr %__args.addr, align 8
  call void @"_ZSt13__invoke_implIN7testing15AssertionResultERZNS0_19exceptions_internal19ExceptionSafetyTestINS0_12_GLOBAL__N_122FollowsStrongGuaranteeEE12WrapContractIZNS4_40ExceptionCheckTest_ModifyingChecker_Test8TestBodyEvE3$_2EESt8functionIFS1_PS5_EERKT_EUlSB_E_JSB_EESE_St14__invoke_otherOT0_DpOT1_"(ptr sret(%"class.testing::AssertionResult") align 8 %agg.result, ptr noundef nonnull align 1 dereferenceable(1) %0, ptr noundef nonnull align 8 dereferenceable(8) %1)
  ret void
}

; Function Attrs: mustprogress nounwind uwtable
define internal noundef ptr @"_ZNSt14_Function_base13_Base_managerIZN7testing19exceptions_internal19ExceptionSafetyTestINS1_12_GLOBAL__N_122FollowsStrongGuaranteeEE12WrapContractIZNS4_40ExceptionCheckTest_ModifyingChecker_Test8TestBodyEvE3$_2EESt8functionIFNS1_15AssertionResultEPS5_EERKT_EUlSC_E_E14_M_get_pointerERKSt9_Any_data"(ptr noundef nonnull align 8 dereferenceable(16) %__source) #7 align 2 {
entry:
  %__source.addr = alloca ptr, align 8
  %__f = alloca ptr, align 8
  store ptr %__source, ptr %__source.addr, align 8
  %0 = load ptr, ptr %__source.addr, align 8
  %call = call noundef nonnull align 1 dereferenceable(1) ptr @"_ZNKSt9_Any_data9_M_accessIZN7testing19exceptions_internal19ExceptionSafetyTestINS1_12_GLOBAL__N_122FollowsStrongGuaranteeEE12WrapContractIZNS4_40ExceptionCheckTest_ModifyingChecker_Test8TestBodyEvE3$_2EESt8functionIFNS1_15AssertionResultEPS5_EERKT_EUlSC_E_EESH_v"(ptr noundef nonnull align 8 dereferenceable(16) %0) #3
  store ptr %call, ptr %__f, align 8
  %1 = load ptr, ptr %__f, align 8
  ret ptr %1
}

; Function Attrs: mustprogress uwtable
define internal void @"_ZNSt17_Function_handlerIFN7testing15AssertionResultEPNS0_12_GLOBAL__N_122FollowsStrongGuaranteeEEZNS0_19exceptions_internal19ExceptionSafetyTestIS3_E12WrapContractIZNS2_40ExceptionCheckTest_ModifyingChecker_Test8TestBodyEvE3$_2EESt8functionIS5_ERKT_EUlS4_E_E9_M_invokeERKSt9_Any_dataOS4_"(ptr noalias sret(%"class.testing::AssertionResult") align 8 %agg.result, ptr noundef nonnull align 8 dereferenceable(16) %__functor, ptr noundef nonnull align 8 dereferenceable(8) %__args) #4 align 2 {
entry:
  %result.ptr = alloca ptr, align 8
  %__functor.addr = alloca ptr, align 8
  %__args.addr = alloca ptr, align 8
  store ptr %agg.result, ptr %result.ptr, align 8
  store ptr %__functor, ptr %__functor.addr, align 8
  store ptr %__args, ptr %__args.addr, align 8
  %0 = load ptr, ptr %__functor.addr, align 8
  %call = call noundef ptr @"_ZNSt14_Function_base13_Base_managerIZN7testing19exceptions_internal19ExceptionSafetyTestINS1_12_GLOBAL__N_122FollowsStrongGuaranteeEE12WrapContractIZNS4_40ExceptionCheckTest_ModifyingChecker_Test8TestBodyEvE3$_2EESt8functionIFNS1_15AssertionResultEPS5_EERKT_EUlSC_E_E14_M_get_pointerERKSt9_Any_data"(ptr noundef nonnull align 8 dereferenceable(16) %0) #3
  %1 = load ptr, ptr %__args.addr, align 8
  call void @"_ZSt10__invoke_rIN7testing15AssertionResultERZNS0_19exceptions_internal19ExceptionSafetyTestINS0_12_GLOBAL__N_122FollowsStrongGuaranteeEE12WrapContractIZNS4_40ExceptionCheckTest_ModifyingChecker_Test8TestBodyEvE3$_2EESt8functionIFS1_PS5_EERKT_EUlSB_E_JSB_EENSt9enable_ifIX16is_invocable_r_vISE_T0_DpT1_EESE_E4typeEOSK_DpOSL_"(ptr sret(%"class.testing::AssertionResult") align 8 %agg.result, ptr noundef nonnull align 1 dereferenceable(1) %call, ptr noundef nonnull align 8 dereferenceable(8) %1)
  ret void
}