; Function Attrs: mustprogress uwtable
define internal void @"_ZNSt17_Function_handlerIFN7testing15AssertionResultEPNS0_12_GLOBAL__N_122FollowsStrongGuaranteeEEZNS0_19exceptions_internal19ExceptionSafetyTestIS3_E12WrapContractIZNS2_40ExceptionCheckTest_ModifyingChecker_Test8TestBodyEvE3$_2EESt8functionIS5_ERKT_EUlS4_E_E9_M_invokeERKSt9_Any_dataOS4_"(ptr noalias sret(%"class.testing::AssertionResult") align 8 %agg.result, ptr nocapture nonnull readnone align 8 %__functor, ptr nocapture noundef nonnull readonly align 8 dereferenceable(8) %__args) #3 align 2 {
entry:
  %__args.val = load ptr, ptr %__args, align 8
  %0 = load i32, ptr %__args.val, align 4, !noalias !592
  %inc.i.i.i.i = add nsw i32 %0, 1
  store i32 %inc.i.i.i.i, ptr %__args.val, align 4, !noalias !592
  tail call void @_ZN7testing16AssertionSuccessEv(ptr sret(%"class.testing::AssertionResult") align 8 %agg.result)
  ret void
}